ccopy_reg
_reconstructor
p0
(csklearn.linear_model.base
LinearRegression
p1
c__builtin__
object
p2
Ntp3
Rp4
(dp5
S'normalize'
p6
I00
sS'n_jobs'
p7
I-1
sS'rank_'
p8
I4
sS'fit_intercept'
p9
I01
sS'_residues'
p10
cnumpy.core.multiarray
scalar
p11
(cnumpy
dtype
p12
(S'f8'
p13
I0
I1
tp14
Rp15
(I3
S'<'
p16
NNNI-1
I-1
I0
tp17
bS')\xbe\xf6\x98\x16\x1dKA'
p18
tp19
Rp20
sS'coef_'
p21
cnumpy.core.multiarray
_reconstruct
p22
(cnumpy
ndarray
p23
(I0
tp24
S'b'
p25
tp26
Rp27
(I1
(I4
tp28
g15
I00
S'vMM\xb8\x83\xbem@R\xa3\x13rP\xab\x04\xc0\xd6\x83\xcb\x84zz\xff\xbf8w\xd96\xa3\x9c\x08\xc0'
p29
tp30
bsS'_sklearn_version'
p31
S'0.19.1'
p32
sS'copy_X'
p33
I01
sS'intercept_'
p34
g11
(g15
S"\xe1\x01\x9c\xaa\xa3'y@"
p35
tp36
Rp37
sS'singular_'
p38
g22
(g23
(I0
tp39
g25
tp40
Rp41
(I1
(I4
tp42
g15
I00
S'\xca\xa4\x1b\x1d\x95\xf0Q@\xe0\x1f\x9b\x8f\xea\xafM@\xa8\xddb\xbb[\x10A@Z\x8a_\xc6\x89\xd86@'
p43
tp44
bsb.